target datalayout = "e-m:e-p270:32:32-p271:32:32-p272:64:64-i64:64-i128:128-f80:128-n8:16:32:64-S128"
target triple = "x86_64-pc-linux-gnu"

%struct.AVCodecContext = type { ptr, i32, i32, ptr, i32, i32, ptr, ptr, ptr, i64, i32, i32, ptr, i32, %struct.AVRational, %struct.AVRational, %struct.AVRational, i32, i32, i32, i32, i32, %struct.AVRational, i32, i32, i32, i32, i32, i32, i32, i32, i32, i32, i32, ptr, ptr, i32, float, float, float, float, float, float, float, float, float, i32, i32, i32, i32, i32, i32, i32, i32, i32, i32, i32, i32, ptr, ptr, ptr, i32, i32, i32, i32, i32, i32, i32, i32, i32, i32, %struct.AVChannelLayout, i32, i32, i32, i32, i32, i32, i32, i32, ptr, i32, i32, i32, float, float, i32, i32, i32, i32, i32, ptr, i64, i64, float, float, i32, i32, ptr, ptr, i32, i32, i32, i32, i32, ptr, ptr, ptr, ptr, i32, i32, [8 x i64], i32, i32, i32, i32, i32, i32, i32, ptr, ptr, i32, i32, i32, i32, i32, i32, i32, i32, i32, i32, ptr, ptr, i32, i32, ptr, ptr, ptr, ptr, i32, i32, i64, i32, i32, i64, ptr, i64, ptr, i32, ptr, i32 }
%struct.AVRational = type { i32, i32 }
%struct.AVChannelLayout = type { i32, i32, %union.anon.0, ptr }
%union.anon.0 = type { i64 }
%struct.YopDecContext = type { ptr, ptr, i32, [2 x i32], i32, ptr, ptr, ptr, ptr, ptr }

@.str.2 = private unnamed_addr constant [28 x i8] c"YOP has invalid dimensions\0A\00", align 1
@.str.3 = private unnamed_addr constant [34 x i8] c"Missing or incomplete extradata.\0A\00", align 1
@.str.4 = private unnamed_addr constant [53 x i8] c"Palette parameters invalid, header probably corrupt\0A\00", align 1

; Function Attrs: cold nounwind optsize uwtable
define internal i32 @yop_decode_init(ptr noundef %0) #0 {
  %2 = alloca i32, align 4
  %3 = alloca ptr, align 8
  %4 = alloca ptr, align 8
  %5 = alloca i32, align 4
  store ptr %0, ptr %3, align 8, !tbaa !4
  call void @llvm.lifetime.start.p0(i64 8, ptr %4) #5
  %6 = load ptr, ptr %3, align 8, !tbaa !4
  %7 = getelementptr inbounds nuw %struct.AVCodecContext, ptr %6, i32 0, i32 6
  %8 = load ptr, ptr %7, align 8, !tbaa !9
  store ptr %8, ptr %4, align 8, !tbaa !29
  %9 = load ptr, ptr %3, align 8, !tbaa !4
  %10 = load ptr, ptr %4, align 8, !tbaa !29
  %11 = getelementptr inbounds nuw %struct.YopDecContext, ptr %10, i32 0, i32 0
  store ptr %9, ptr %11, align 8, !tbaa !31
  %12 = load ptr, ptr %3, align 8, !tbaa !4
  %13 = getelementptr inbounds nuw %struct.AVCodecContext, ptr %12, i32 0, i32 18
  %14 = load i32, ptr %13, align 8, !tbaa !34
  %15 = and i32 %14, 1
  %16 = icmp ne i32 %15, 0
  br i1 %16, label %33, label %17

17:                                               ; preds = %1
  %18 = load ptr, ptr %3, align 8, !tbaa !4
  %19 = getelementptr inbounds nuw %struct.AVCodecContext, ptr %18, i32 0, i32 19
  %20 = load i32, ptr %19, align 4, !tbaa !35
  %21 = and i32 %20, 1
  %22 = icmp ne i32 %21, 0
  br i1 %22, label %33, label %23

23:                                               ; preds = %17
  %24 = load ptr, ptr %3, align 8, !tbaa !4
  %25 = getelementptr inbounds nuw %struct.AVCodecContext, ptr %24, i32 0, i32 18
  %26 = load i32, ptr %25, align 8, !tbaa !34
  %27 = load ptr, ptr %3, align 8, !tbaa !4
  %28 = getelementptr inbounds nuw %struct.AVCodecContext, ptr %27, i32 0, i32 19
  %29 = load i32, ptr %28, align 4, !tbaa !35
  %30 = load ptr, ptr %3, align 8, !tbaa !4
  %31 = call i32 @av_image_check_size(i32 noundef %26, i32 noundef %29, i32 noundef 0, ptr noundef %30)
  %32 = icmp slt i32 %31, 0
  br i1 %32, label %33, label %35

33:                                               ; preds = %23, %17, %1
  %34 = load ptr, ptr %3, align 8, !tbaa !4
  call void (ptr, i32, ptr, ...) @av_log(ptr noundef %34, i32 noundef 16, ptr noundef @.str.2)
  store i32 -1094995529, ptr %2, align 4
  store i32 1, ptr %5, align 4
  br label %102

35:                                               ; preds = %23
  %36 = load ptr, ptr %3, align 8, !tbaa !4
  %37 = getelementptr inbounds nuw %struct.AVCodecContext, ptr %36, i32 0, i32 13
  %38 = load i32, ptr %37, align 8, !tbaa !36
  %39 = icmp slt i32 %38, 3
  br i1 %39, label %40, label %42

40:                                               ; preds = %35
  %41 = load ptr, ptr %3, align 8, !tbaa !4
  call void (ptr, i32, ptr, ...) @av_log(ptr noundef %41, i32 noundef 16, ptr noundef @.str.3)
  store i32 -1094995529, ptr %2, align 4
  store i32 1, ptr %5, align 4
  br label %102

42:                                               ; preds = %35
  %43 = load ptr, ptr %3, align 8, !tbaa !4
  %44 = getelementptr inbounds nuw %struct.AVCodecContext, ptr %43, i32 0, i32 23
  store i32 11, ptr %44, align 8, !tbaa !37
  %45 = load ptr, ptr %3, align 8, !tbaa !4
  %46 = getelementptr inbounds nuw %struct.AVCodecContext, ptr %45, i32 0, i32 12
  %47 = load ptr, ptr %46, align 8, !tbaa !38
  %48 = getelementptr inbounds i8, ptr %47, i64 0
  %49 = load i8, ptr %48, align 1, !tbaa !39
  %50 = zext i8 %49 to i32
  %51 = load ptr, ptr %4, align 8, !tbaa !29
  %52 = getelementptr inbounds nuw %struct.YopDecContext, ptr %51, i32 0, i32 2
  store i32 %50, ptr %52, align 8, !tbaa !40
  %53 = load ptr, ptr %3, align 8, !tbaa !4
  %54 = getelementptr inbounds nuw %struct.AVCodecContext, ptr %53, i32 0, i32 12
  %55 = load ptr, ptr %54, align 8, !tbaa !38
  %56 = getelementptr inbounds i8, ptr %55, i64 1
  %57 = load i8, ptr %56, align 1, !tbaa !39
  %58 = zext i8 %57 to i32
  %59 = load ptr, ptr %4, align 8, !tbaa !29
  %60 = getelementptr inbounds nuw %struct.YopDecContext, ptr %59, i32 0, i32 3
  %61 = getelementptr inbounds [2 x i32], ptr %60, i64 0, i64 0
  store i32 %58, ptr %61, align 4, !tbaa !41
  %62 = load ptr, ptr %3, align 8, !tbaa !4
  %63 = getelementptr inbounds nuw %struct.AVCodecContext, ptr %62, i32 0, i32 12
  %64 = load ptr, ptr %63, align 8, !tbaa !38
  %65 = getelementptr inbounds i8, ptr %64, i64 2
  %66 = load i8, ptr %65, align 1, !tbaa !39
  %67 = zext i8 %66 to i32
  %68 = load ptr, ptr %4, align 8, !tbaa !29
  %69 = getelementptr inbounds nuw %struct.YopDecContext, ptr %68, i32 0, i32 3
  %70 = getelementptr inbounds [2 x i32], ptr %69, i64 0, i64 1
  store i32 %67, ptr %70, align 4, !tbaa !41
  %71 = load ptr, ptr %4, align 8, !tbaa !29
  %72 = getelementptr inbounds nuw %struct.YopDecContext, ptr %71, i32 0, i32 2
  %73 = load i32, ptr %72, align 8, !tbaa !40
  %74 = load ptr, ptr %4, align 8, !tbaa !29
  %75 = getelementptr inbounds nuw %struct.YopDecContext, ptr %74, i32 0, i32 3
  %76 = getelementptr inbounds [2 x i32], ptr %75, i64 0, i64 0
  %77 = load i32, ptr %76, align 4, !tbaa !41
  %78 = add nsw i32 %73, %77
  %79 = icmp sgt i32 %78, 256
  br i1 %79, label %90, label %80

80:                                               ; preds = %42
  %81 = load ptr, ptr %4, align 8, !tbaa !29
  %82 = getelementptr inbounds nuw %struct.YopDecContext, ptr %81, i32 0, i32 2
  %83 = load i32, ptr %82, align 8, !tbaa !40
  %84 = load ptr, ptr %4, align 8, !tbaa !29
  %85 = getelementptr inbounds nuw %struct.YopDecContext, ptr %84, i32 0, i32 3
  %86 = getelementptr inbounds [2 x i32], ptr %85, i64 0, i64 1
  %87 = load i32, ptr %86, align 4, !tbaa !41
  %88 = add nsw i32 %83, %87
  %89 = icmp sgt i32 %88, 256
  br i1 %89, label %90, label %92

90:                                               ; preds = %80, %42
  %91 = load ptr, ptr %3, align 8, !tbaa !4
  call void (ptr, i32, ptr, ...) @av_log(ptr noundef %91, i32 noundef 16, ptr noundef @.str.4)
  store i32 -1094995529, ptr %2, align 4
  store i32 1, ptr %5, align 4
  br label %102

92:                                               ; preds = %80
  %93 = call ptr @av_frame_alloc()
  %94 = load ptr, ptr %4, align 8, !tbaa !29
  %95 = getelementptr inbounds nuw %struct.YopDecContext, ptr %94, i32 0, i32 1
  store ptr %93, ptr %95, align 8, !tbaa !42
  %96 = load ptr, ptr %4, align 8, !tbaa !29
  %97 = getelementptr inbounds nuw %struct.YopDecContext, ptr %96, i32 0, i32 1
  %98 = load ptr, ptr %97, align 8, !tbaa !42
  %99 = icmp ne ptr %98, null
  br i1 %99, label %101, label %100

100:                                              ; preds = %92
  store i32 -12, ptr %2, align 4
  store i32 1, ptr %5, align 4
  br label %102

101:                                              ; preds = %92
  store i32 0, ptr %2, align 4
  store i32 1, ptr %5, align 4
  br label %102

102:                                              ; preds = %101, %100, %90, %40, %33
  call void @llvm.lifetime.end.p0(i64 8, ptr %4) #5
  %103 = load i32, ptr %2, align 4
  ret i32 %103
}