; Function Attrs: cold nounwind optsize uwtable
define internal range(i32 -1094995529, 1) i32 @yop_decode_init(ptr noundef %0) #0 {
  %2 = getelementptr inbounds nuw i8, ptr %0, i64 32
  %3 = load ptr, ptr %2, align 8, !tbaa !4
  store ptr %0, ptr %3, align 8, !tbaa !27
  %4 = getelementptr inbounds nuw i8, ptr %0, i64 112
  %5 = load i32, ptr %4, align 8, !tbaa !31
  %6 = and i32 %5, 1
  %.not = icmp eq i32 %6, 0
  br i1 %.not, label %7, label %14

7:                                                ; preds = %1
  %8 = getelementptr inbounds nuw i8, ptr %0, i64 116
  %9 = load i32, ptr %8, align 4, !tbaa !32
  %10 = and i32 %9, 1
  %.not25 = icmp eq i32 %10, 0
  br i1 %.not25, label %11, label %14

11:                                               ; preds = %7
  %12 = tail call i32 @av_image_check_size(i32 noundef %5, i32 noundef %9, i32 noundef 0, ptr noundef nonnull %0) #5
  %13 = icmp slt i32 %12, 0
  br i1 %13, label %14, label %15

14:                                               ; preds = %11, %7, %1
  tail call void (ptr, i32, ptr, ...) @av_log(ptr noundef nonnull %0, i32 noundef 16, ptr noundef nonnull @.str.2) #5
  br label %43

15:                                               ; preds = %11
  %16 = getelementptr inbounds nuw i8, ptr %0, i64 80
  %17 = load i32, ptr %16, align 8, !tbaa !33
  %18 = icmp slt i32 %17, 3
  br i1 %18, label %19, label %20

19:                                               ; preds = %15
  tail call void (ptr, i32, ptr, ...) @av_log(ptr noundef nonnull %0, i32 noundef 16, ptr noundef nonnull @.str.3) #5
  br label %43

20:                                               ; preds = %15
  %21 = getelementptr inbounds nuw i8, ptr %0, i64 136
  store i32 11, ptr %21, align 8, !tbaa !34
  %22 = getelementptr inbounds nuw i8, ptr %0, i64 72
  %23 = load ptr, ptr %22, align 8, !tbaa !35
  %24 = load i8, ptr %23, align 1, !tbaa !36
  %25 = zext i8 %24 to i32
  %26 = getelementptr inbounds nuw i8, ptr %3, i64 16
  store i32 %25, ptr %26, align 8, !tbaa !37
  %27 = getelementptr inbounds nuw i8, ptr %23, i64 1
  %28 = load i8, ptr %27, align 1, !tbaa !36
  %29 = zext i8 %28 to i32
  %30 = getelementptr inbounds nuw i8, ptr %3, i64 20
  store i32 %29, ptr %30, align 4, !tbaa !38
  %31 = getelementptr inbounds nuw i8, ptr %23, i64 2
  %32 = load i8, ptr %31, align 1, !tbaa !36
  %33 = zext i8 %32 to i32
  %34 = getelementptr inbounds nuw i8, ptr %3, i64 24
  store i32 %33, ptr %34, align 4, !tbaa !38
  %35 = add nuw nsw i32 %29, %25
  %36 = icmp samesign ugt i32 %35, 256
  %37 = add nuw nsw i32 %33, %25
  %38 = icmp samesign ugt i32 %37, 256
  %or.cond = select i1 %36, i1 true, i1 %38
  br i1 %or.cond, label %39, label %40

39:                                               ; preds = %20
  tail call void (ptr, i32, ptr, ...) @av_log(ptr noundef nonnull %0, i32 noundef 16, ptr noundef nonnull @.str.4) #5
  br label %43

40:                                               ; preds = %20
  %41 = tail call ptr @av_frame_alloc() #5
  %42 = getelementptr inbounds nuw i8, ptr %3, i64 8
  store ptr %41, ptr %42, align 8, !tbaa !39
  %.not26 = icmp eq ptr %41, null
  %. = select i1 %.not26, i32 -12, i32 0
  br label %43

43:                                               ; preds = %40, %39, %19, %14
  %.0 = phi i32 [ -1094995529, %14 ], [ -1094995529, %19 ], [ -1094995529, %39 ], [ %., %40 ]
  ret i32 %.0
}